target datalayout = "e-m:e-p270:32:32-p271:32:32-p272:64:64-i64:64-i128:128-f80:128-n8:16:32:64-S128"
target triple = "x86_64-pc-linux-gnu"

%struct.PyVarObject = type { %struct._object, i64 }
%struct._object = type { i64, ptr }
%struct._longobject = type { %struct.PyVarObject, [1 x i32] }
%struct.py_annoy = type { %struct._object, i32, ptr }

@_Py_TrueStruct = external global %struct._longobject, align 8
@.str.39 = private unnamed_addr constant [2 x i8] c"i\00", align 1

; Function Attrs: inlinehint mustprogress nounwind sspstrong uwtable
define internal void @_ZL10_Py_INCREFP7_object(ptr noundef %0) #6 {
  %2 = alloca ptr, align 8
  store ptr %0, ptr %2, align 8, !tbaa !14
  %3 = load ptr, ptr %2, align 8, !tbaa !14
  %4 = getelementptr inbounds nuw %struct._object, ptr %3, i32 0, i32 0
  %5 = load i64, ptr %4, align 8, !tbaa !45
  %6 = add i64 %5, 1
  store i64 %6, ptr %4, align 8, !tbaa !45
  ret void
}

; Function Attrs: inlinehint mustprogress sspstrong uwtable
define internal noundef ptr @_ZL10_Py_NewRefP7_object(ptr noundef %0) #5 {
  %2 = alloca ptr, align 8
  store ptr %0, ptr %2, align 8, !tbaa !14
  %3 = load ptr, ptr %2, align 8, !tbaa !14
  call void @_ZL10_Py_INCREFP7_object(ptr noundef %3)
  %4 = load ptr, ptr %2, align 8, !tbaa !14
  ret ptr %4
}

; Function Attrs: mustprogress sspstrong uwtable
define internal noundef ptr @_ZL13py_an_verboseP8py_annoyP7_object(ptr noundef %0, ptr noundef %1) #2 {
  %3 = alloca ptr, align 8
  %4 = alloca ptr, align 8
  %5 = alloca ptr, align 8
  %6 = alloca i32, align 4
  %7 = alloca i32, align 4
  store ptr %0, ptr %4, align 8, !tbaa !31
  store ptr %1, ptr %5, align 8, !tbaa !14
  call void @llvm.lifetime.start.p0(i64 4, ptr %6) #28
  %8 = load ptr, ptr %4, align 8, !tbaa !31
  %9 = getelementptr inbounds nuw %struct.py_annoy, ptr %8, i32 0, i32 2
  %10 = load ptr, ptr %9, align 8, !tbaa !36
  %11 = icmp ne ptr %10, null
  br i1 %11, label %13, label %12

12:                                               ; preds = %2
  store ptr null, ptr %3, align 8
  store i32 1, ptr %7, align 4
  br label %28

13:                                               ; preds = %2
  %14 = load ptr, ptr %5, align 8, !tbaa !14
  %15 = call i32 (ptr, ptr, ...) @PyArg_ParseTuple(ptr noundef %14, ptr noundef @.str.39, ptr noundef %6)
  %16 = icmp ne i32 %15, 0
  br i1 %16, label %18, label %17

17:                                               ; preds = %13
  store ptr null, ptr %3, align 8
  store i32 1, ptr %7, align 4
  br label %28

18:                                               ; preds = %13
  %19 = load ptr, ptr %4, align 8, !tbaa !31
  %20 = getelementptr inbounds nuw %struct.py_annoy, ptr %19, i32 0, i32 2
  %21 = load ptr, ptr %20, align 8, !tbaa !36
  %22 = load i32, ptr %6, align 4, !tbaa !12
  %23 = icmp ne i32 %22, 0
  %24 = load ptr, ptr %21, align 8, !tbaa !40
  %25 = getelementptr inbounds ptr, ptr %24, i64 13
  %26 = load ptr, ptr %25, align 8
  call void %26(ptr noundef nonnull align 8 dereferenceable(8) %21, i1 noundef zeroext %23)
  %27 = call noundef ptr @_ZL10_Py_NewRefP7_object(ptr noundef @_Py_TrueStruct)
  store ptr %27, ptr %3, align 8
  store i32 1, ptr %7, align 4
  br label %28

28:                                               ; preds = %18, %17, %12
  call void @llvm.lifetime.end.p0(i64 4, ptr %6) #28
  %29 = load ptr, ptr %3, align 8
  ret ptr %29
}