; Function Attrs: mustprogress sspstrong uwtable
define internal noundef ptr @_ZL13py_an_verboseP8py_annoyP7_object(ptr noundef readonly captures(none) %0, ptr noundef %1) #2 {
  %3 = alloca i32, align 4
  call void @llvm.lifetime.start.p0(i64 4, ptr nonnull %3) #33
  %4 = getelementptr inbounds nuw i8, ptr %0, i64 24
  %5 = load ptr, ptr %4, align 8, !tbaa !25
  %.not = icmp eq ptr %5, null
  br i1 %.not, label %17, label %6

6:                                                ; preds = %2
  %7 = call i32 (ptr, ptr, ...) @PyArg_ParseTuple(ptr noundef %1, ptr noundef nonnull @.str.39, ptr noundef nonnull %3)
  %.not4 = icmp eq i32 %7, 0
  br i1 %.not4, label %17, label %8

8:                                                ; preds = %6
  %9 = load ptr, ptr %4, align 8, !tbaa !25
  %10 = load i32, ptr %3, align 4, !tbaa !10
  %11 = icmp ne i32 %10, 0
  %12 = load ptr, ptr %9, align 8, !tbaa !28
  %13 = getelementptr inbounds nuw i8, ptr %12, i64 104
  %14 = load ptr, ptr %13, align 8
  call void %14(ptr noundef nonnull align 8 dereferenceable(8) %9, i1 noundef zeroext %11)
  %15 = load i64, ptr @_Py_TrueStruct, align 8, !tbaa !21
  %16 = add i64 %15, 1
  store i64 %16, ptr @_Py_TrueStruct, align 8, !tbaa !21
  br label %17

17:                                               ; preds = %6, %2, %8
  %.0 = phi ptr [ @_Py_TrueStruct, %8 ], [ null, %2 ], [ null, %6 ]
  call void @llvm.lifetime.end.p0(i64 4, ptr nonnull %3) #33
  ret ptr %.0
}